target datalayout = "e-m:e-p270:32:32-p271:32:32-p272:64:64-i64:64-i128:128-f80:128-n8:16:32:64-S128"
target triple = "x86_64-pc-linux-gnu"

%struct.mbedtls_rsa_context = type { i32, i64, %struct.mbedtls_mpi, %struct.mbedtls_mpi, %struct.mbedtls_mpi, %struct.mbedtls_mpi, %struct.mbedtls_mpi, %struct.mbedtls_mpi, %struct.mbedtls_mpi, %struct.mbedtls_mpi, %struct.mbedtls_mpi, %struct.mbedtls_mpi, %struct.mbedtls_mpi, %struct.mbedtls_mpi, %struct.mbedtls_mpi, i32, i32 }
%struct.mbedtls_mpi = type { ptr, i16, i16 }
%"class.LIEF::PE::RsaInfo" = type { ptr }

; Function Attrs: mustprogress nounwind uwtable
define void @_ZN4LIEF2PE7RsaInfoC2EPv(ptr noundef nonnull align 8 dereferenceable(8) %0, ptr noundef %1) unnamed_addr #0 align 2 {
  %3 = alloca ptr, align 8
  %4 = alloca ptr, align 8
  %5 = alloca ptr, align 8
  %6 = alloca ptr, align 8
  store ptr %0, ptr %3, align 8, !tbaa !3
  store ptr %1, ptr %4, align 8, !tbaa !8
  %7 = load ptr, ptr %3, align 8
  call void @llvm.lifetime.start.p0(i64 8, ptr %5) #10
  %8 = load ptr, ptr %4, align 8, !tbaa !8
  store ptr %8, ptr %5, align 8, !tbaa !9
  call void @llvm.lifetime.start.p0(i64 8, ptr %6) #10
  %9 = call noalias noundef nonnull ptr @_Znwm(i64 noundef 232) #11
  call void @llvm.memset.p0.i64(ptr align 16 %9, i8 0, i64 232, i1 false)
  store ptr %9, ptr %6, align 8, !tbaa !9
  %10 = load ptr, ptr %6, align 8, !tbaa !9
  call void @mbedtls_rsa_init(ptr noundef %10)
  %11 = load ptr, ptr %6, align 8, !tbaa !9
  %12 = load ptr, ptr %5, align 8, !tbaa !9
  %13 = getelementptr inbounds nuw %struct.mbedtls_rsa_context, ptr %12, i32 0, i32 15
  %14 = load i32, ptr %13, align 8, !tbaa !11
  %15 = load ptr, ptr %5, align 8, !tbaa !9
  %16 = getelementptr inbounds nuw %struct.mbedtls_rsa_context, ptr %15, i32 0, i32 16
  %17 = load i32, ptr %16, align 4, !tbaa !18
  %18 = call i32 @mbedtls_rsa_set_padding(ptr noundef %11, i32 noundef %14, i32 noundef %17)
  %19 = load ptr, ptr %6, align 8, !tbaa !9
  %20 = load ptr, ptr %5, align 8, !tbaa !9
  %21 = call i32 @mbedtls_rsa_copy(ptr noundef %19, ptr noundef %20)
  %22 = load ptr, ptr %6, align 8, !tbaa !9
  %23 = call i32 @mbedtls_rsa_complete(ptr noundef %22)
  %24 = load ptr, ptr %6, align 8, !tbaa !9
  %25 = getelementptr inbounds nuw %"class.LIEF::PE::RsaInfo", ptr %7, i32 0, i32 0
  store ptr %24, ptr %25, align 8, !tbaa !19
  call void @llvm.lifetime.end.p0(i64 8, ptr %6) #10
  call void @llvm.lifetime.end.p0(i64 8, ptr %5) #10
  ret void
}