; Function Attrs: mustprogress nounwind uwtable
define void @_ZN4LIEF2PE7RsaInfoC2EPv(ptr noundef nonnull writeonly align 8 captures(none) dereferenceable(8) initializes((0, 8)) %0, ptr noundef %1) unnamed_addr #1 align 2 {
  %3 = tail call noalias noundef nonnull dereferenceable(232) ptr @_Znwm(i64 noundef 232) #9
  tail call void @llvm.memset.p0.i64(ptr noundef nonnull align 16 dereferenceable(232) %3, i8 0, i64 232, i1 false)
  tail call void @mbedtls_rsa_init(ptr noundef nonnull %3) #10
  %4 = getelementptr inbounds nuw i8, ptr %1, i64 224
  %5 = load i32, ptr %4, align 8, !tbaa !3
  %6 = getelementptr inbounds nuw i8, ptr %1, i64 228
  %7 = load i32, ptr %6, align 4, !tbaa !13
  %8 = tail call i32 @mbedtls_rsa_set_padding(ptr noundef nonnull %3, i32 noundef %5, i32 noundef %7) #10
  %9 = tail call i32 @mbedtls_rsa_copy(ptr noundef nonnull %3, ptr noundef %1) #10
  %10 = tail call i32 @mbedtls_rsa_complete(ptr noundef nonnull %3) #10
  store ptr %3, ptr %0, align 8, !tbaa !14
  ret void
}